target datalayout = "e-m:e-p270:32:32-p271:32:32-p272:64:64-i64:64-i128:128-f80:128-n8:16:32:64-S128"
target triple = "x86_64-unknown-linux-gnu"

%"class.sat::literal" = type { i32 }
%class.stopwatch = type <{ %"class.std::chrono::time_point", %"class.std::chrono::duration", i8, [7 x i8] }>
%"class.std::chrono::time_point" = type { %"class.std::chrono::duration" }
%"class.std::chrono::duration" = type { i64 }
%class.params_ref = type { ptr }
%"class.sat::justification" = type <{ i32, [4 x i8], i64, i32, [4 x i8] }>
%"class.sat::binspr" = type <{ ptr, %class.scoped_ptr.38, i32, i32, %class.vector.39, i32, i32, %class.svector.14, %class.svector.14, %class.svector.26, %class.svector.26, i32, i32, i32, i32, i32, [4 x i32], [5 x i32], [5 x i32], [4 x i8] }>
%class.scoped_ptr.38 = type { ptr }
%class.vector.39 = type { ptr }
%class.svector.14 = type { %class.vector.15 }
%class.vector.15 = type { ptr }
%class.svector.26 = type { %class.vector.27 }
%class.vector.27 = type { ptr }
%"class.sat::solver" = type { %"class.sat::solver_core", i8, [7 x i8], %"struct.sat::config", %"struct.sat::stats", %class.scoped_ptr, %class.scoped_ptr.0, ptr, %"class.sat::drat", [2 x %"class.sat::clause_allocator"], i8, %class.random_gen, %"class.sat::cleaner", %class.svector.11, %"class.sat::model_converter", i8, %"class.sat::simplifier", %"class.sat::scc", %"class.sat::asymm_branch", %"class.sat::probing", i8, [7 x i8], %"class.sat::mus", %"class.sat::binspr", i8, i8, [6 x i8], %"class.sat::justification", %"class.sat::literal", %class.ptr_vector.20, %class.ptr_vector.20, i32, %class.svector.4, %class.svector.4, %class.svector.4, %class.svector.4, %class.vector.40, %class.svector.11, %class.svector.41, %class.svector.14, %class.svector.14, %class.svector.14, %class.svector.14, %class.svector.14, %class.svector.4, %class.svector.4, i32, %class.svector.26, %class.svector.4, i32, %class.svector.43, %class.svector.43, %class.svector.43, %class.svector.43, %class.svector.43, i32, double, %class.svector.14, %class.svector.14, %class.svector.14, %class.svector.24, i32, i32, i32, i32, i32, i32, %"struct.sat::backoff", i32, i32, %"struct.sat::backoff", %"struct.sat::backoff", %class.var_queue, i32, i32, i32, %class.ema, %class.ema, %class.ema, %class.ema, %class.ema, %class.svector.26, %class.svector.28, %"class.std::__cxx11::basic_string", i8, %class.visit_helper, %class.svector.45, %class.scoped_limit_trail, %class.stopwatch, %class.params_ref, %"struct.sat::no_drat_params", %class.scoped_ptr.38, %class.svector.26, %"class.sat::literal_set", %"class.sat::literal_set", %class.svector.26, i32, i32, i32, i32, i8, ptr, ptr, %class.statistics, i32, i32, i32, i32, i8, i32, i32, i32, i32, i32, i32, i32, double, i32, double, i8, i8, %class.svector.26, i8, %class.svector.43, i32, i32, i32, %class.svector.26, %class.svector.26, %class.svector.24, %class.svector.4, %class.approx_set_tpl, %class.svector.26, %class.svector.26, %class.vector.10, %class.svector.26, %class.svector.36, %class.u_map, %class.svector.26 }
%"class.sat::solver_core" = type { ptr, ptr }
%"struct.sat::config" = type <{ i64, i32, i32, i32, i8, [3 x i8], i32, i32, double, i32, i8, [3 x i8], i32, i8, [3 x i8], i32, [4 x i8], double, double, i32, i32, double, double, i32, [4 x i8], %class.symbol, double, i32, i32, i8, [3 x i8], i32, i32, i8, [3 x i8], i32, i8, [3 x i8], i32, i8, [3 x i8], i32, i8, i8, i8, i8, i32, i8, i8, i8, i8, i8, i8, i8, i8, i32, i8, i8, i8, i8, i32, double, i32, [4 x i8], double, double, double, double, i32, i8, i8, [2 x i8], double, i8, i8, [2 x i8], i32, double, i32, i32, i32, i32, i32, i32, i32, i32, i8, i8, i8, i8, i32, i32, i8, i8, i8, i8, i8, i8, i8, [5 x i8], %class.symbol, i8, i8, i8, i8, i8, i8, [2 x i8], i32, i32, i32, i8, [3 x i8], double, double, double, double, double, i8, [7 x i8] }>
%class.symbol = type { ptr }
%"struct.sat::stats" = type { i32, i32, i32, i32, i32, i32, i32, i32, i32, i32, i32, i32, i32, i32, i32, i32, i32, i32, i32, i32, i32 }
%class.scoped_ptr = type { ptr }
%class.scoped_ptr.0 = type { ptr }
%"class.sat::drat" = type { ptr, %class.svector, ptr, %"class.sat::clause_allocator", ptr, ptr, %class.svector.6, %class.svector.8, %class.vector.10, %class.svector.11, i8, i8, i8, i8, i8, %"struct.sat::drat::stats" }
%class.svector = type { %class.vector }
%class.vector = type { ptr }
%"class.sat::clause_allocator" = type { %class.sat_allocator, %class.id_gen }
%class.sat_allocator = type { ptr, i64, %class.ptr_vector, ptr, [65 x %class.ptr_vector.2] }
%class.ptr_vector = type { %class.vector.1 }
%class.vector.1 = type { ptr }
%class.ptr_vector.2 = type { %class.vector.3 }
%class.vector.3 = type { ptr }
%class.id_gen = type { i32, %class.svector.4 }
%class.svector.6 = type { %class.vector.7 }
%class.vector.7 = type { ptr }
%class.svector.8 = type { %class.vector.9 }
%class.vector.9 = type { ptr }
%"struct.sat::drat::stats" = type { i32, i32, i32, i32 }
%class.random_gen = type { i32 }
%"class.sat::cleaner" = type { ptr, i32, i32, i32, i32 }
%"class.sat::model_converter" = type { %class.vector.13, i32, %class.svector.14, ptr, %class.svector.16 }
%class.vector.13 = type { ptr }
%class.svector.16 = type { %class.vector.17 }
%class.vector.17 = type { ptr }
%"class.sat::simplifier" = type { ptr, i32, %"class.sat::use_list", %"class.sat::ext_use_list", %"class.sat::clause_set", %class.svector.22, i32, %class.tracked_uint_set, i8, %"class.sat::tmp_clause", %class.svector.24, i32, i32, i8, i8, i8, i8, i32, i8, i8, i32, i8, i32, i8, i8, i32, i32, i32, i32, i32, i32, i32, i32, i32, i32, i8, i32, i8, i8, i32, i32, i32, i32, i32, i32, i32, i32, i32, i32, i32, i8, i32, %class.ptr_vector.20, %class.svector.26, %class.svector.28, %class.svector.28, %class.svector.26 }
%"class.sat::use_list" = type { %class.vector.18 }
%class.vector.18 = type { ptr }
%"class.sat::ext_use_list" = type { %class.vector.19 }
%class.vector.19 = type { ptr }
%"class.sat::clause_set" = type { %class.svector.4, %class.ptr_vector.20 }
%class.svector.22 = type { %class.vector.23 }
%class.vector.23 = type { ptr }
%class.tracked_uint_set = type { %class.svector.24, %class.svector.4 }
%"class.sat::tmp_clause" = type { ptr }
%"class.sat::scc" = type { ptr, i8, i8, i32, i32, %"class.sat::big" }
%"class.sat::big" = type { ptr, i32, %class.vector.30, %class.svector.14, %class.svector.31, %class.svector.31, %class.svector.26, %class.svector.26, i8, i8, %class.vector.30 }
%class.svector.31 = type { %class.vector.32 }
%class.vector.32 = type { ptr }
%class.vector.30 = type { ptr }
%"class.sat::asymm_branch" = type { ptr, %class.params_ref, i64, %class.random_gen, i32, i32, i8, i32, i32, i8, i8, i64, i32, i32, i32, %class.svector.26, %class.svector.26, %class.svector.33, %class.svector.33, %class.svector.26, %class.svector.26 }
%class.svector.33 = type { %class.vector.34 }
%class.vector.34 = type { ptr }
%"class.sat::probing" = type { ptr, i32, %"class.sat::literal_set", %class.svector.26, i32, i8, i32, i8, i8, i64, i32, %class.vector.35, %class.svector.36, %"class.sat::big" }
%class.vector.35 = type { ptr }
%"class.sat::mus" = type <{ ptr, %class.svector.26, %class.svector.26, i8, [7 x i8], %class.svector.11, i32, [4 x i8] }>
%class.ptr_vector.20 = type { %class.vector.21 }
%class.vector.21 = type { ptr }
%class.vector.40 = type { ptr }
%class.svector.11 = type { %class.vector.12 }
%class.vector.12 = type { ptr }
%class.svector.41 = type { %class.vector.42 }
%class.vector.42 = type { ptr }
%"struct.sat::backoff" = type { i32, i32, i32, i32, i32 }
%class.var_queue = type { %class.heap }
%class.heap = type { %"struct.var_queue<svector<unsigned int>>::lt", %class.svector.31, %class.svector.31 }
%"struct.var_queue<svector<unsigned int>>::lt" = type { ptr }
%class.ema = type { double, double, double, i32, i32 }
%class.svector.28 = type { %class.vector.29 }
%class.vector.29 = type { ptr }
%"class.std::__cxx11::basic_string" = type { %"struct.std::__cxx11::basic_string<char>::_Alloc_hider", i64, %union.anon }
%"struct.std::__cxx11::basic_string<char>::_Alloc_hider" = type { ptr }
%union.anon = type { i64, [8 x i8] }
%class.visit_helper = type { %class.svector.4, i32, i32 }
%class.svector.45 = type { %class.vector.46 }
%class.vector.46 = type { ptr }
%class.scoped_limit_trail = type { %class.svector.4, i32, i32 }
%"struct.sat::no_drat_params" = type { %class.params_ref }
%"class.sat::literal_set" = type { %class.tracked_uint_set }
%class.statistics = type { %class.svector.47, %class.svector.49 }
%class.svector.47 = type { %class.vector.48 }
%class.vector.48 = type { ptr }
%class.svector.49 = type { %class.vector.50 }
%class.vector.50 = type { ptr }
%class.svector.43 = type { %class.vector.44 }
%class.vector.44 = type { ptr }
%class.svector.24 = type { %class.vector.25 }
%class.vector.25 = type { ptr }
%class.svector.4 = type { %class.vector.5 }
%class.vector.5 = type { ptr }
%class.approx_set_tpl = type { i32 }
%class.vector.10 = type { ptr }
%class.svector.36 = type { %class.vector.37 }
%class.vector.37 = type { ptr }
%class.u_map = type { %class.map }
%class.map = type { %class.table2map }
%class.table2map = type { %class.core_hashtable }
%class.core_hashtable = type <{ ptr, i32, i32, i32, [4 x i8] }>
%class.vector.53 = type { ptr }

; Function Attrs: mustprogress nounwind uwtable
define linkonce_odr hidden noundef nonnull align 8 dereferenceable(8) ptr @_ZN6vectorIS_IN3sat7watchedELb1EjELb1EjEixEj(ptr noundef nonnull align 8 dereferenceable(8) %this, i32 noundef %idx) #4 comdat align 2 {
entry:
  %this.addr = alloca ptr, align 8
  %idx.addr = alloca i32, align 4
  store ptr %this, ptr %this.addr, align 8
  store i32 %idx, ptr %idx.addr, align 4
  %this1 = load ptr, ptr %this.addr, align 8
  %m_data = getelementptr inbounds %class.vector.40, ptr %this1, i32 0, i32 0
  %0 = load ptr, ptr %m_data, align 8
  %1 = load i32, ptr %idx.addr, align 4
  %idxprom = zext i32 %1 to i64
  %arrayidx = getelementptr inbounds %class.vector.53, ptr %0, i64 %idxprom
  ret ptr %arrayidx
}

; Function Attrs: mustprogress nounwind uwtable
define linkonce_odr hidden noundef zeroext i1 @_ZNK6vectorIN3sat7watchedELb1EjE5emptyEv(ptr noundef nonnull align 8 dereferenceable(8) %this) #4 comdat align 2 {
entry:
  %this.addr = alloca ptr, align 8
  store ptr %this, ptr %this.addr, align 8
  %this1 = load ptr, ptr %this.addr, align 8
  %m_data = getelementptr inbounds %class.vector.53, ptr %this1, i32 0, i32 0
  %0 = load ptr, ptr %m_data, align 8
  %cmp = icmp eq ptr %0, null
  br i1 %cmp, label %lor.end, label %lor.rhs

lor.rhs:                                          ; preds = %entry
  %m_data2 = getelementptr inbounds %class.vector.53, ptr %this1, i32 0, i32 0
  %1 = load ptr, ptr %m_data2, align 8
  %arrayidx = getelementptr inbounds i32, ptr %1, i64 -1
  %2 = load i32, ptr %arrayidx, align 4
  %cmp3 = icmp eq i32 %2, 0
  br label %lor.end

lor.end:                                          ; preds = %lor.rhs, %entry
  %3 = phi i1 [ true, %entry ], [ %cmp3, %lor.rhs ]
  ret i1 %3
}

; Function Attrs: mustprogress uwtable
define linkonce_odr hidden noundef nonnull align 8 dereferenceable(8) ptr @_ZN3sat6solver9get_wlistENS_7literalE(ptr noundef nonnull align 8 dereferenceable(4408) %this, i32 %l.coerce) #5 comdat align 2 {
entry:
  %l = alloca %"class.sat::literal", align 4
  %this.addr = alloca ptr, align 8
  %coerce.dive = getelementptr inbounds %"class.sat::literal", ptr %l, i32 0, i32 0
  store i32 %l.coerce, ptr %coerce.dive, align 4
  store ptr %this, ptr %this.addr, align 8
  %this1 = load ptr, ptr %this.addr, align 8
  %m_watches = getelementptr inbounds %"class.sat::solver", ptr %this1, i32 0, i32 36
  %call = call noundef i32 @_ZNK3sat7literal5indexEv(ptr noundef nonnull align 4 dereferenceable(4) %l)
  %call2 = call noundef nonnull align 8 dereferenceable(8) ptr @_ZN6vectorIS_IN3sat7watchedELb1EjELb1EjEixEj(ptr noundef nonnull align 8 dereferenceable(8) %m_watches, i32 noundef %call)
  ret ptr %call2
}

; Function Attrs: mustprogress nounwind uwtable
define linkonce_odr hidden i32 @_ZN3satcoENS_7literalE(i32 %l.coerce) #4 comdat {
entry:
  %retval = alloca %"class.sat::literal", align 4
  %l = alloca %"class.sat::literal", align 4
  %coerce.dive = getelementptr inbounds %"class.sat::literal", ptr %l, i32 0, i32 0
  store i32 %l.coerce, ptr %coerce.dive, align 4
  %m_val = getelementptr inbounds %"class.sat::literal", ptr %l, i32 0, i32 0
  %0 = load i32, ptr %m_val, align 4
  %xor = xor i32 %0, 1
  %m_val1 = getelementptr inbounds %"class.sat::literal", ptr %l, i32 0, i32 0
  store i32 %xor, ptr %m_val1, align 4
  call void @llvm.memcpy.p0.p0.i64(ptr align 4 %retval, ptr align 4 %l, i64 4, i1 false)
  %coerce.dive2 = getelementptr inbounds %"class.sat::literal", ptr %retval, i32 0, i32 0
  %1 = load i32, ptr %coerce.dive2, align 4
  ret i32 %1
}

; Function Attrs: mustprogress nounwind uwtable
define linkonce_odr hidden noundef ptr @_ZNK10scoped_ptrIN3sat6solverEEptEv(ptr noundef nonnull align 8 dereferenceable(8) %this) #4 comdat align 2 {
entry:
  %this.addr = alloca ptr, align 8
  store ptr %this, ptr %this.addr, align 8
  %this1 = load ptr, ptr %this.addr, align 8
  %m_ptr = getelementptr inbounds %class.scoped_ptr.38, ptr %this1, i32 0, i32 0
  %0 = load ptr, ptr %m_ptr, align 8
  ret ptr %0
}

; Function Attrs: mustprogress nounwind uwtable
define linkonce_odr hidden noundef zeroext i1 @_ZNK6vectorIPN3sat6clauseELb0EjE5emptyEv(ptr noundef nonnull align 8 dereferenceable(8) %this) #4 comdat align 2 {
entry:
  %this.addr = alloca ptr, align 8
  store ptr %this, ptr %this.addr, align 8
  %this1 = load ptr, ptr %this.addr, align 8
  %m_data = getelementptr inbounds %class.vector.21, ptr %this1, i32 0, i32 0
  %0 = load ptr, ptr %m_data, align 8
  %cmp = icmp eq ptr %0, null
  br i1 %cmp, label %lor.end, label %lor.rhs

lor.rhs:                                          ; preds = %entry
  %m_data2 = getelementptr inbounds %class.vector.21, ptr %this1, i32 0, i32 0
  %1 = load ptr, ptr %m_data2, align 8
  %arrayidx = getelementptr inbounds i32, ptr %1, i64 -1
  %2 = load i32, ptr %arrayidx, align 4
  %cmp3 = icmp eq i32 %2, 0
  br label %lor.end

lor.end:                                          ; preds = %lor.rhs, %entry
  %3 = phi i1 [ true, %entry ], [ %cmp3, %lor.rhs ]
  ret i1 %3
}

; Function Attrs: mustprogress nounwind uwtable
define linkonce_odr hidden noundef nonnull align 8 dereferenceable(8) ptr @_ZNK6vectorI10ptr_vectorIN3sat6clauseEELb1EjEixEj(ptr noundef nonnull align 8 dereferenceable(8) %this, i32 noundef %idx) #4 comdat align 2 {
entry:
  %this.addr = alloca ptr, align 8
  %idx.addr = alloca i32, align 4
  store ptr %this, ptr %this.addr, align 8
  store i32 %idx, ptr %idx.addr, align 4
  %this1 = load ptr, ptr %this.addr, align 8
  %m_data = getelementptr inbounds %class.vector.39, ptr %this1, i32 0, i32 0
  %0 = load ptr, ptr %m_data, align 8
  %1 = load i32, ptr %idx.addr, align 4
  %idxprom = zext i32 %1 to i64
  %arrayidx = getelementptr inbounds %class.ptr_vector.20, ptr %0, i64 %idxprom
  ret ptr %arrayidx
}

; Function Attrs: mustprogress nounwind uwtable
define linkonce_odr hidden noundef i32 @_ZNK3sat7literal5indexEv(ptr noundef nonnull align 4 dereferenceable(4) %this) #4 comdat align 2 {
entry:
  %this.addr = alloca ptr, align 8
  store ptr %this, ptr %this.addr, align 8
  %this1 = load ptr, ptr %this.addr, align 8
  %m_val = getelementptr inbounds %"class.sat::literal", ptr %this1, i32 0, i32 0
  %0 = load i32, ptr %m_val, align 4
  ret i32 %0
}

; Function Attrs: mustprogress uwtable
define hidden noundef zeroext i1 @_ZNK3sat6binspr7is_usedENS_7literalE(ptr noundef nonnull align 8 dereferenceable(148) %this, i32 %lit.coerce) #5 align 2 {
entry:
  %lit = alloca %"class.sat::literal", align 4
  %this.addr = alloca ptr, align 8
  %agg.tmp = alloca %"class.sat::literal", align 4
  %agg.tmp5 = alloca %"class.sat::literal", align 4
  %coerce.dive = getelementptr inbounds %"class.sat::literal", ptr %lit, i32 0, i32 0
  store i32 %lit.coerce, ptr %coerce.dive, align 4
  store ptr %this, ptr %this.addr, align 8
  %this1 = load ptr, ptr %this.addr, align 8
  %m_use_list = getelementptr inbounds %"class.sat::binspr", ptr %this1, i32 0, i32 4
  %call = call noundef i32 @_ZNK3sat7literal5indexEv(ptr noundef nonnull align 4 dereferenceable(4) %lit)
  %call2 = call noundef nonnull align 8 dereferenceable(8) ptr @_ZNK6vectorI10ptr_vectorIN3sat6clauseEELb1EjEixEj(ptr noundef nonnull align 8 dereferenceable(8) %m_use_list, i32 noundef %call)
  %call3 = call noundef zeroext i1 @_ZNK6vectorIPN3sat6clauseELb0EjE5emptyEv(ptr noundef nonnull align 8 dereferenceable(8) %call2)
  br i1 %call3, label %lor.rhs, label %lor.end

lor.rhs:                                          ; preds = %entry
  %s = getelementptr inbounds %"class.sat::binspr", ptr %this1, i32 0, i32 1
  %call4 = call noundef ptr @_ZNK10scoped_ptrIN3sat6solverEEptEv(ptr noundef nonnull align 8 dereferenceable(8) %s)
  call void @llvm.memcpy.p0.p0.i64(ptr align 4 %agg.tmp5, ptr align 4 %lit, i64 4, i1 false)
  %coerce.dive6 = getelementptr inbounds %"class.sat::literal", ptr %agg.tmp5, i32 0, i32 0
  %0 = load i32, ptr %coerce.dive6, align 4
  %call7 = call i32 @_ZN3satcoENS_7literalE(i32 %0)
  %coerce.dive8 = getelementptr inbounds %"class.sat::literal", ptr %agg.tmp, i32 0, i32 0
  store i32 %call7, ptr %coerce.dive8, align 4
  %coerce.dive9 = getelementptr inbounds %"class.sat::literal", ptr %agg.tmp, i32 0, i32 0
  %1 = load i32, ptr %coerce.dive9, align 4
  %call10 = call noundef nonnull align 8 dereferenceable(8) ptr @_ZN3sat6solver9get_wlistENS_7literalE(ptr noundef nonnull align 8 dereferenceable(4408) %call4, i32 %1)
  %call11 = call noundef zeroext i1 @_ZNK6vectorIN3sat7watchedELb1EjE5emptyEv(ptr noundef nonnull align 8 dereferenceable(8) %call10)
  %lnot = xor i1 %call11, true
  br label %lor.end

lor.end:                                          ; preds = %lor.rhs, %entry
  %2 = phi i1 [ true, %entry ], [ %lnot, %lor.rhs ]
  ret i1 %2
}