; Function Attrs: mustprogress nofree norecurse nosync nounwind willreturn memory(read, inaccessiblemem: none) uwtable
define hidden noundef zeroext i1 @_ZNK3sat6binspr7is_usedENS_7literalE(ptr nocapture noundef nonnull readonly align 8 dereferenceable(148) %this, i32 %lit.coerce) local_unnamed_addr #7 align 2 {
entry:
  %m_use_list = getelementptr inbounds i8, ptr %this, i64 24
  %0 = load ptr, ptr %m_use_list, align 8
  %idxprom.i = zext i32 %lit.coerce to i64
  %arrayidx.i = getelementptr inbounds %class.ptr_vector.20, ptr %0, i64 %idxprom.i
  %1 = load ptr, ptr %arrayidx.i, align 8
  %cmp.i = icmp eq ptr %1, null
  br i1 %cmp.i, label %lor.rhs, label %_ZNK6vectorIPN3sat6clauseELb0EjE5emptyEv.exit

_ZNK6vectorIPN3sat6clauseELb0EjE5emptyEv.exit:    ; preds = %entry
  %arrayidx.i1 = getelementptr inbounds i8, ptr %1, i64 -4
  %2 = load i32, ptr %arrayidx.i1, align 4
  %cmp3.i = icmp eq i32 %2, 0
  br i1 %cmp3.i, label %lor.rhs, label %lor.end

lor.rhs:                                          ; preds = %entry, %_ZNK6vectorIPN3sat6clauseELb0EjE5emptyEv.exit
  %s = getelementptr inbounds i8, ptr %this, i64 8
  %3 = load ptr, ptr %s, align 8
  %xor.i = xor i32 %lit.coerce, 1
  %m_watches.i = getelementptr inbounds i8, ptr %3, i64 3432
  %4 = load ptr, ptr %m_watches.i, align 8
  %idxprom.i.i = zext i32 %xor.i to i64
  %arrayidx.i.i = getelementptr inbounds %class.vector.53, ptr %4, i64 %idxprom.i.i
  %5 = load ptr, ptr %arrayidx.i.i, align 8
  %cmp.i2 = icmp eq ptr %5, null
  br i1 %cmp.i2, label %lor.end, label %lor.rhs.i3

lor.rhs.i3:                                       ; preds = %lor.rhs
  %arrayidx.i4 = getelementptr inbounds i8, ptr %5, i64 -4
  %6 = load i32, ptr %arrayidx.i4, align 4
  %cmp3.i5 = icmp ne i32 %6, 0
  br label %lor.end

lor.end:                                          ; preds = %lor.rhs.i3, %lor.rhs, %_ZNK6vectorIPN3sat6clauseELb0EjE5emptyEv.exit
  %7 = phi i1 [ true, %_ZNK6vectorIPN3sat6clauseELb0EjE5emptyEv.exit ], [ false, %lor.rhs ], [ %cmp3.i5, %lor.rhs.i3 ]
  ret i1 %7
}